; Function Attrs: nounwind uwtable
define dso_local noundef ptr @quicklistGetIteratorEntryAtIdx(ptr noundef %0, i64 noundef %1, ptr noundef %2) local_unnamed_addr #1 {
  %4 = icmp sgt i64 %1, -1
  %not..i = xor i1 %4, true
  %5 = sext i1 %not..i to i64
  %6 = xor i64 %1, %5
  %7 = getelementptr inbounds nuw i8, ptr %0, i64 16
  %8 = load i64, ptr %7, align 8, !tbaa !5
  %.not.i = icmp ult i64 %6, %8
  br i1 %.not.i, label %9, label %quicklistGetIteratorAtIdx.exit.thread

9:                                                ; preds = %3
  %10 = add i64 %8, -1
  %11 = lshr i64 %10, 1
  %.not56.i = icmp ugt i64 %6, %11
  %12 = sub i64 %10, %6
  %.044.v.i = select i1 %.not56.i, i1 %not..i, i1 %4
  %.043.i = select i1 %.not56.i, i64 %12, i64 %6
  %.in.idx.i = select i1 %.044.v.i, i64 0, i64 8
  %.in.i = getelementptr inbounds nuw i8, ptr %0, i64 %.in.idx.i
  %.04559.i = load ptr, ptr %.in.i, align 8, !tbaa !16
  %.not5260.i = icmp eq ptr %.04559.i, null
  br i1 %.not5260.i, label %quicklistGetIteratorAtIdx.exit.thread, label %.lr.ph.i, !prof !45

.lr.ph.i:                                         ; preds = %9
  %.in53.idx.i = select i1 %.044.v.i, i64 8, i64 0
  br label %13

13:                                               ; preds = %20, %.lr.ph.i
  %.04562.i = phi ptr [ %.04559.i, %.lr.ph.i ], [ %.045.i, %20 ]
  %.04661.i = phi i64 [ 0, %.lr.ph.i ], [ %18, %20 ]
  %14 = getelementptr inbounds nuw i8, ptr %.04562.i, i64 32
  %15 = load i32, ptr %14, align 8
  %16 = and i32 %15, 65535
  %17 = zext nneg i32 %16 to i64
  %18 = add i64 %.04661.i, %17
  %19 = icmp ugt i64 %18, %.043.i
  br i1 %19, label %21, label %20

20:                                               ; preds = %13
  %.in53.i = getelementptr inbounds nuw i8, ptr %.04562.i, i64 %.in53.idx.i
  %.045.i = load ptr, ptr %.in53.i, align 8, !tbaa !16
  %.not52.i = icmp eq ptr %.045.i, null
  br i1 %.not52.i, label %quicklistGetIteratorAtIdx.exit.thread, label %13, !prof !46, !llvm.loop !47

21:                                               ; preds = %13
  %22 = sub i64 %8, %18
  %spec.select.i = select i1 %.not56.i, i64 %22, i64 %.04661.i
  %23 = tail call noalias dereferenceable_or_null(40) ptr @zmalloc(i64 noundef 40) #22
  %24 = getelementptr inbounds nuw i8, ptr %23, i64 32
  store i32 1, ptr %24, align 8, !tbaa !40
  store ptr %0, ptr %23, align 8, !tbaa !43
  %25 = getelementptr inbounds nuw i8, ptr %23, i64 16
  store ptr null, ptr %25, align 8, !tbaa !38
  %26 = getelementptr inbounds nuw i8, ptr %23, i64 8
  store ptr %.04562.i, ptr %26, align 8, !tbaa !41
  %27 = xor i64 %6, -1
  %28 = add i64 %spec.select.i, %27
  %29 = sub i64 %6, %spec.select.i
  %.sink.i = select i1 %4, i64 %29, i64 %28
  %30 = getelementptr inbounds nuw i8, ptr %23, i64 24
  store i64 %.sink.i, ptr %30, align 8, !tbaa !42
  %31 = tail call i32 @quicklistNext(ptr noundef nonnull %23, ptr noundef %2)
  %.not7 = icmp eq i32 %31, 0
  br i1 %.not7, label %32, label %quicklistGetIteratorAtIdx.exit.thread, !prof !24

32:                                               ; preds = %21
  tail call void @_serverAssert(ptr noundef nonnull @.str.3, ptr noundef nonnull @.str.1, i32 noundef 1504) #23
  tail call void @abort() #24
  unreachable

quicklistGetIteratorAtIdx.exit.thread:            ; preds = %20, %9, %3, %21
  %.0 = phi ptr [ %23, %21 ], [ null, %3 ], [ null, %9 ], [ null, %20 ]
  ret ptr %.0
}